target datalayout = "e-m:e-p270:32:32-p271:32:32-p272:64:64-i64:64-i128:128-f80:128-n8:16:32:64-S128"
target triple = "x86_64-pc-linux-gnu"

@hf_zbee_gp_sink_ieee = internal global i32 0, align 4
@hf_zbee_gp_sink_nwk = internal global i32 0, align 4
@hf_zbee_gp_sink_address_list_length = internal global i32 0, align 4
@ett_zbee_gp_sink_address_list = internal global i32 0, align 4
@.str.1757 = private unnamed_addr constant [7 x i8] c"%s #%d\00", align 1

; Function Attrs: null_pointer_is_valid sspstrong uwtable
define internal i32 @dissect_zbee_zcl_gp_sink_address_list(ptr noundef %0, ptr noundef %1, i32 noundef %2, ptr noundef %3) #0 {
  %5 = alloca ptr, align 8
  %6 = alloca ptr, align 8
  %7 = alloca i32, align 4
  %8 = alloca ptr, align 8
  %9 = alloca i8, align 1
  %10 = alloca ptr, align 8
  store ptr %0, ptr %5, align 8
  store ptr %1, ptr %6, align 8
  store i32 %2, ptr %7, align 4
  store ptr %3, ptr %8, align 8
  call void @llvm.lifetime.start.p0(i64 1, ptr %9) #7
  %11 = load ptr, ptr %5, align 8
  %12 = load i32, ptr %7, align 4
  %13 = call zeroext i8 @tvb_get_uint8(ptr noundef %11, i32 noundef %12)
  store i8 %13, ptr %9, align 1
  call void @llvm.lifetime.start.p0(i64 8, ptr %10) #7
  %14 = load ptr, ptr %6, align 8
  %15 = load ptr, ptr %5, align 8
  %16 = load i32, ptr %7, align 4
  %17 = load i8, ptr %9, align 1
  %18 = zext i8 %17 to i32
  %19 = mul i32 %18, 10
  %20 = add i32 %19, 1
  %21 = load i32, ptr @ett_zbee_gp_sink_address_list, align 4
  %22 = load ptr, ptr %8, align 8
  %23 = load i8, ptr %9, align 1
  %24 = zext i8 %23 to i32
  %25 = call ptr (ptr, ptr, i32, i32, i32, ptr, ptr, ...) @proto_tree_add_subtree_format(ptr noundef %14, ptr noundef %15, i32 noundef %16, i32 noundef %20, i32 noundef %21, ptr noundef null, ptr noundef @.str.1757, ptr noundef %22, i32 noundef %24)
  store ptr %25, ptr %10, align 8
  %26 = load ptr, ptr %10, align 8
  %27 = load i32, ptr @hf_zbee_gp_sink_address_list_length, align 4
  %28 = load ptr, ptr %5, align 8
  %29 = load i32, ptr %7, align 4
  %30 = call ptr @proto_tree_add_item(ptr noundef %26, i32 noundef %27, ptr noundef %28, i32 noundef %29, i32 noundef 1, i32 noundef 0)
  %31 = load i32, ptr %7, align 4
  %32 = add i32 %31, 1
  store i32 %32, ptr %7, align 4
  br label %33

33:                                               ; preds = %36, %4
  %34 = load i8, ptr %9, align 1
  %35 = icmp ne i8 %34, 0
  br i1 %35, label %36, label %53

36:                                               ; preds = %33
  %37 = load ptr, ptr %10, align 8
  %38 = load i32, ptr @hf_zbee_gp_sink_ieee, align 4
  %39 = load ptr, ptr %5, align 8
  %40 = load i32, ptr %7, align 4
  %41 = call ptr @proto_tree_add_item(ptr noundef %37, i32 noundef %38, ptr noundef %39, i32 noundef %40, i32 noundef 8, i32 noundef -2147483648)
  %42 = load i32, ptr %7, align 4
  %43 = add i32 %42, 8
  store i32 %43, ptr %7, align 4
  %44 = load ptr, ptr %10, align 8
  %45 = load i32, ptr @hf_zbee_gp_sink_nwk, align 4
  %46 = load ptr, ptr %5, align 8
  %47 = load i32, ptr %7, align 4
  %48 = call ptr @proto_tree_add_item(ptr noundef %44, i32 noundef %45, ptr noundef %46, i32 noundef %47, i32 noundef 2, i32 noundef -2147483648)
  %49 = load i32, ptr %7, align 4
  %50 = add i32 %49, 2
  store i32 %50, ptr %7, align 4
  %51 = load i8, ptr %9, align 1
  %52 = add i8 %51, -1
  store i8 %52, ptr %9, align 1
  br label %33, !llvm.loop !37

53:                                               ; preds = %33
  %54 = load i32, ptr %7, align 4
  call void @llvm.lifetime.end.p0(i64 8, ptr %10) #7
  call void @llvm.lifetime.end.p0(i64 1, ptr %9) #7
  ret i32 %54
}